target datalayout = "e-m:e-p270:32:32-p271:32:32-p272:64:64-i64:64-i128:128-f80:128-n8:16:32:64-S128"
target triple = "x86_64-pc-linux-gnu"

%struct.FunctionScanState = type { %struct.ScanState, i32, i8, i8, i64, i32, ptr, ptr }
%struct.ScanState = type { %struct.PlanState, ptr, ptr, ptr }
%struct.PlanState = type { i32, ptr, ptr, ptr, ptr, ptr, ptr, ptr, ptr, ptr, ptr, ptr, ptr, ptr, ptr, ptr, ptr, ptr, i8, ptr, ptr, ptr, ptr, ptr, i8, i8, i8, i8, i8, i8, i8, i8 }
%struct.FunctionScanPerFuncState = type { ptr, ptr, i32, ptr, i64, ptr }

; Function Attrs: nounwind uwtable
define dso_local void @ExecEndFunctionScan(ptr noundef %0) #0 {
  %2 = alloca ptr, align 8
  %3 = alloca i32, align 4
  %4 = alloca ptr, align 8
  store ptr %0, ptr %2, align 8
  call void @llvm.lifetime.start.p0(i64 4, ptr %3) #6
  store i32 0, ptr %3, align 4
  br label %5

5:                                                ; preds = %34, %1
  %6 = load i32, ptr %3, align 4
  %7 = load ptr, ptr %2, align 8
  %8 = getelementptr inbounds nuw %struct.FunctionScanState, ptr %7, i32 0, i32 5
  %9 = load i32, ptr %8, align 8
  %10 = icmp slt i32 %6, %9
  br i1 %10, label %11, label %37

11:                                               ; preds = %5
  call void @llvm.lifetime.start.p0(i64 8, ptr %4) #6
  %12 = load ptr, ptr %2, align 8
  %13 = getelementptr inbounds nuw %struct.FunctionScanState, ptr %12, i32 0, i32 6
  %14 = load ptr, ptr %13, align 8
  %15 = load i32, ptr %3, align 4
  %16 = sext i32 %15 to i64
  %17 = getelementptr inbounds %struct.FunctionScanPerFuncState, ptr %14, i64 %16
  store ptr %17, ptr %4, align 8
  %18 = load ptr, ptr %4, align 8
  %19 = getelementptr inbounds nuw %struct.FunctionScanPerFuncState, ptr %18, i32 0, i32 3
  %20 = load ptr, ptr %19, align 8
  %21 = icmp ne ptr %20, null
  br i1 %21, label %22, label %33

22:                                               ; preds = %11
  %23 = load ptr, ptr %2, align 8
  %24 = getelementptr inbounds nuw %struct.FunctionScanState, ptr %23, i32 0, i32 6
  %25 = load ptr, ptr %24, align 8
  %26 = load i32, ptr %3, align 4
  %27 = sext i32 %26 to i64
  %28 = getelementptr inbounds %struct.FunctionScanPerFuncState, ptr %25, i64 %27
  %29 = getelementptr inbounds nuw %struct.FunctionScanPerFuncState, ptr %28, i32 0, i32 3
  %30 = load ptr, ptr %29, align 8
  call void @tuplestore_end(ptr noundef %30)
  %31 = load ptr, ptr %4, align 8
  %32 = getelementptr inbounds nuw %struct.FunctionScanPerFuncState, ptr %31, i32 0, i32 3
  store ptr null, ptr %32, align 8
  br label %33

33:                                               ; preds = %22, %11
  call void @llvm.lifetime.end.p0(i64 8, ptr %4) #6
  br label %34

34:                                               ; preds = %33
  %35 = load i32, ptr %3, align 4
  %36 = add i32 %35, 1
  store i32 %36, ptr %3, align 4
  br label %5, !llvm.loop !10

37:                                               ; preds = %5
  call void @llvm.lifetime.end.p0(i64 4, ptr %3) #6
  ret void
}