; Function Attrs: nounwind uwtable
define dso_local void @ExecEndFunctionScan(ptr noundef readonly captures(none) %0) local_unnamed_addr #0 {
  %2 = getelementptr inbounds nuw i8, ptr %0, i64 240
  %3 = load i32, ptr %2, align 8
  %4 = icmp sgt i32 %3, 0
  br i1 %4, label %.lr.ph, label %._crit_edge

.lr.ph:                                           ; preds = %1
  %5 = getelementptr inbounds nuw i8, ptr %0, i64 248
  br label %6

6:                                                ; preds = %.lr.ph, %12
  %7 = phi i32 [ %3, %.lr.ph ], [ %13, %12 ]
  %indvars.iv = phi i64 [ 0, %.lr.ph ], [ %indvars.iv.next, %12 ]
  %8 = load ptr, ptr %5, align 8
  %9 = getelementptr inbounds nuw %struct.FunctionScanPerFuncState, ptr %8, i64 %indvars.iv, i32 3
  %10 = load ptr, ptr %9, align 8
  %.not = icmp eq ptr %10, null
  br i1 %.not, label %12, label %11

11:                                               ; preds = %6
  tail call void @tuplestore_end(ptr noundef nonnull %10) #6
  store ptr null, ptr %9, align 8
  %.pre = load i32, ptr %2, align 8
  br label %12

12:                                               ; preds = %11, %6
  %13 = phi i32 [ %.pre, %11 ], [ %7, %6 ]
  %indvars.iv.next = add nuw nsw i64 %indvars.iv, 1
  %14 = sext i32 %13 to i64
  %15 = icmp slt i64 %indvars.iv.next, %14
  br i1 %15, label %6, label %._crit_edge, !llvm.loop !9

._crit_edge:                                      ; preds = %12, %1
  ret void
}